; Function Attrs: mustprogress nofree norecurse nosync nounwind willreturn memory(read, inaccessiblemem: none) uwtable
define range(i16 0, -32768) i16 @_ZN7Imf_3_410uintToHalfEj(i32 noundef %0) local_unnamed_addr #3 personality ptr @__gxx_personality_v0 {
  %2 = uitofp i32 %0 to float
  %3 = load ptr, ptr @imath_half_to_float_table, align 8, !tbaa !3
  %4 = getelementptr inbounds nuw i8, ptr %3, i64 126972
  %5 = load float, ptr %4, align 4, !tbaa !8
  %6 = fcmp olt float %5, %2
  br i1 %6, label %_ZN9Imath_3_24halfC2Ef.exit, label %7

7:                                                ; preds = %1
  %8 = bitcast float %2 to i32
  %9 = icmp samesign ugt i32 %8, 947912703
  br i1 %9, label %10, label %31

10:                                               ; preds = %7
  %11 = icmp samesign ugt i32 %8, 2139095039
  br i1 %11, label %12, label %22, !prof !9

12:                                               ; preds = %10
  %13 = icmp eq i32 %8, 2139095040
  br i1 %13, label %_ZN9Imath_3_24halfC2Ef.exit, label %14

14:                                               ; preds = %12
  %15 = lshr i32 %8, 13
  %16 = and i32 %15, 1023
  %17 = icmp eq i32 %16, 0
  %18 = zext i1 %17 to i16
  %19 = trunc nuw nsw i32 %16 to i16
  %20 = or i16 %19, %18
  %21 = or disjoint i16 %20, 31744
  br label %_ZN9Imath_3_24halfC2Ef.exit

22:                                               ; preds = %10
  %23 = icmp samesign ugt i32 %8, 1199566847
  br i1 %23, label %_ZN9Imath_3_24halfC2Ef.exit, label %24, !prof !9

24:                                               ; preds = %22
  %25 = add nuw nsw i32 %8, 134221823
  %26 = lshr i32 %8, 13
  %27 = and i32 %26, 1
  %28 = add nuw nsw i32 %25, %27
  %29 = lshr i32 %28, 13
  %30 = trunc i32 %29 to i16
  br label %_ZN9Imath_3_24halfC2Ef.exit

31:                                               ; preds = %7
  %32 = icmp samesign ult i32 %8, 855638017
  br i1 %32, label %_ZN9Imath_3_24halfC2Ef.exit, label %33

33:                                               ; preds = %31
  %34 = lshr i32 %8, 23
  %35 = sub nuw nsw i32 126, %34
  %36 = and i32 %8, 8388607
  %37 = or disjoint i32 %36, 8388608
  %38 = add nsw i32 %34, -94
  %39 = shl i32 %37, %38
  %40 = lshr i32 %37, %35
  %41 = trunc nuw i32 %40 to i16
  %42 = icmp ugt i32 %39, -2147483648
  br i1 %42, label %46, label %43

43:                                               ; preds = %33
  %44 = icmp ne i32 %39, -2147483648
  %45 = and i32 %40, 1
  %.not.i.i = icmp eq i32 %45, 0
  %or.cond.i.i = select i1 %44, i1 true, i1 %.not.i.i
  br i1 %or.cond.i.i, label %_ZN9Imath_3_24halfC2Ef.exit, label %46

46:                                               ; preds = %43, %33
  %47 = add nuw nsw i16 %41, 1
  br label %_ZN9Imath_3_24halfC2Ef.exit

_ZN9Imath_3_24halfC2Ef.exit:                      ; preds = %22, %46, %43, %31, %24, %14, %12, %1
  %.sroa.02.0 = phi i16 [ 31744, %1 ], [ %21, %14 ], [ %30, %24 ], [ 31744, %12 ], [ 0, %31 ], [ %47, %46 ], [ %41, %43 ], [ 31744, %22 ]
  ret i16 %.sroa.02.0
}